; Function Attrs: mustprogress uwtable
define internal void @"_ZNSt17_Function_handlerIFvvEZZN9grpc_core15PollingResolver27ScheduleNextResolutionTimerERKNS1_8DurationEEN3$_0clEvEUlvE_E9_M_invokeERKSt9_Any_data"(ptr nocapture noundef nonnull readonly align 8 dereferenceable(16) %__functor) #3 align 2 personality ptr @__gxx_personality_v0 {
entry:
  %__functor.val = load ptr, ptr %__functor, align 8
  %call.val = load ptr, ptr %__functor.val, align 8
  %tracer_.i.i.i.i = getelementptr inbounds i8, ptr %call.val, i64 112
  %0 = load ptr, ptr %tracer_.i.i.i.i, align 8
  %cmp.not.i.i.i.i = icmp eq ptr %0, null
  br i1 %cmp.not.i.i.i.i, label %if.end.i.i.i.i, label %land.rhs.i.i.i.i

land.rhs.i.i.i.i:                                 ; preds = %entry
  %value_.i.i.i.i.i = getelementptr inbounds i8, ptr %0, i64 16
  %1 = load atomic i8, ptr %value_.i.i.i.i.i monotonic, align 1
  %2 = and i8 %1, 1
  %tobool.i.i.i.not.i.i.i.i = icmp eq i8 %2, 0
  br i1 %tobool.i.i.i.not.i.i.i.i, label %if.end.i.i.i.i, label %if.then.i.i.i.i

if.then.i.i.i.i:                                  ; preds = %land.rhs.i.i.i.i
  %shutdown_.i.i.i.i = getelementptr inbounds i8, ptr %call.val, i64 128
  %3 = load i8, ptr %shutdown_.i.i.i.i, align 8
  %4 = and i8 %3, 1
  %conv.i.i.i.i = zext nneg i8 %4 to i32
  tail call void (ptr, i32, i32, ptr, ...) @gpr_log(ptr noundef nonnull @.str.1, i32 noundef 123, i32 noundef 1, ptr noundef nonnull @.str.5, ptr noundef nonnull %call.val, i32 noundef %conv.i.i.i.i)
  br label %if.end.i.i.i.i

if.end.i.i.i.i:                                   ; preds = %if.then.i.i.i.i, %land.rhs.i.i.i.i, %entry
  %_M_engaged.i.i.i.i.i.i = getelementptr inbounds i8, ptr %call.val, i64 528
  %5 = load i8, ptr %_M_engaged.i.i.i.i.i.i, align 8
  %6 = and i8 %5, 1
  %tobool.i.i.not.i.i.i.i = icmp eq i8 %6, 0
  br i1 %tobool.i.i.not.i.i.i.i, label %"_ZSt10__invoke_rIvRZZN9grpc_core15PollingResolver27ScheduleNextResolutionTimerERKNS0_8DurationEEN3$_0clEvEUlvE_JEENSt9enable_ifIX16is_invocable_r_vIT_T0_DpT1_EES9_E4typeEOSA_DpOSB_.exit", label %land.lhs.true.i.i.i.i

land.lhs.true.i.i.i.i:                            ; preds = %if.end.i.i.i.i
  %shutdown_4.i.i.i.i = getelementptr inbounds i8, ptr %call.val, i64 128
  %7 = load i8, ptr %shutdown_4.i.i.i.i, align 8
  %8 = and i8 %7, 1
  %tobool5.not.i.i.i.i = icmp eq i8 %8, 0
  br i1 %tobool5.not.i.i.i.i, label %_ZNSt8optionalIN17grpc_event_engine12experimental11EventEngine10TaskHandleEE5resetEv.exit.i.i.i.i, label %"_ZSt10__invoke_rIvRZZN9grpc_core15PollingResolver27ScheduleNextResolutionTimerERKNS0_8DurationEEN3$_0clEvEUlvE_JEENSt9enable_ifIX16is_invocable_r_vIT_T0_DpT1_EES9_E4typeEOSA_DpOSB_.exit"

_ZNSt8optionalIN17grpc_event_engine12experimental11EventEngine10TaskHandleEE5resetEv.exit.i.i.i.i: ; preds = %land.lhs.true.i.i.i.i
  store i8 0, ptr %_M_engaged.i.i.i.i.i.i, align 8
  tail call void @_ZN9grpc_core15PollingResolver20StartResolvingLockedEv(ptr noundef nonnull align 8 dereferenceable(536) %call.val)
  br label %"_ZSt10__invoke_rIvRZZN9grpc_core15PollingResolver27ScheduleNextResolutionTimerERKNS0_8DurationEEN3$_0clEvEUlvE_JEENSt9enable_ifIX16is_invocable_r_vIT_T0_DpT1_EES9_E4typeEOSA_DpOSB_.exit"

"_ZSt10__invoke_rIvRZZN9grpc_core15PollingResolver27ScheduleNextResolutionTimerERKNS0_8DurationEEN3$_0clEvEUlvE_JEENSt9enable_ifIX16is_invocable_r_vIT_T0_DpT1_EES9_E4typeEOSA_DpOSB_.exit": ; preds = %if.end.i.i.i.i, %land.lhs.true.i.i.i.i, %_ZNSt8optionalIN17grpc_event_engine12experimental11EventEngine10TaskHandleEE5resetEv.exit.i.i.i.i
  ret void
}